; Function Attrs: nounwind sspstrong uwtable
define internal fastcc i64 @format_value(i64 noundef %0) unnamed_addr #0 {
  %2 = icmp eq i64 %0, 0
  %3 = and i64 %0, 7
  %4 = icmp ne i64 %3, 0
  %5 = or i1 %2, %4
  br i1 %5, label %rbimpl_RB_TYPE_P_fastpath.exit.thread, label %rbimpl_RB_TYPE_P_fastpath.exit

rbimpl_RB_TYPE_P_fastpath.exit:                   ; preds = %1
  %6 = inttoptr i64 %0 to ptr
  %7 = load i64, ptr %6, align 8, !tbaa !7
  %8 = and i64 %7, 31
  %9 = icmp eq i64 %8, 10
  br i1 %9, label %11, label %rbimpl_RB_TYPE_P_fastpath.exit.thread

rbimpl_RB_TYPE_P_fastpath.exit.thread:            ; preds = %1, %rbimpl_RB_TYPE_P_fastpath.exit
  %10 = tail call i64 @rb_Integer(i64 noundef %0) #12
  br label %11

11:                                               ; preds = %rbimpl_RB_TYPE_P_fastpath.exit.thread, %rbimpl_RB_TYPE_P_fastpath.exit
  %.0 = phi i64 [ %0, %rbimpl_RB_TYPE_P_fastpath.exit ], [ %10, %rbimpl_RB_TYPE_P_fastpath.exit.thread ]
  %12 = tail call i64 @rb_big2str(i64 noundef %.0, i32 noundef 10) #12
  ret i64 %12
}